; ModuleID = '58/713.c'
source_filename = "58/713.c"
target datalayout = "e-m:e-p270:32:32-p271:32:32-p272:64:64-i64:64-f80:128-n8:16:32:64-S128"
target triple = "x86_64-pc-linux-gnu"

@.str = private unnamed_addr constant [4 x i8] c"%d\0A\00", align 1

; Function Attrs: noinline nounwind uwtable
define dso_local i32 @main() #0 {
  %1 = alloca i32, align 4
  %2 = alloca i32, align 4
  %3 = alloca i32, align 4
  %4 = alloca i32, align 4
  %5 = alloca i32, align 4
  %6 = alloca [100 x i8], align 16
  store i32 0, i32* %1, align 4
  %7 = call i32 (i8*, ...) @__isoc99_scanf(i8* getelementptr inbounds ([4 x i8], [4 x i8]* @.str, i64 0, i64 0), i32* %2)
  store i32 1, i32* %3, align 4
  br label %8

8:                                                ; preds = %23, %0
  %9 = load i32, i32* %3, align 4
  %10 = load i32, i32* %2, align 4
  %11 = icmp sle i32 %9, %10
  br i1 %11, label %12, label %26

12:                                               ; preds = %8
  %13 = getelementptr inbounds [100 x i8], [100 x i8]* %6, i64 0, i64 0
  %14 = call i32 (i8*, ...) bitcast (i32 (...)* @gets to i32 (i8*, ...)*)(i8* %13)
  %15 = getelementptr inbounds [100 x i8], [100 x i8]* %6, i64 0, i64 0
  %16 = call i64 @strlen(i8* %15) #3
  %17 = trunc i64 %16 to i32
  store i32 %17, i32* %5, align 4
  %18 = getelementptr inbounds [100 x i8], [100 x i8]* %6, i64 0, i64 0
  %19 = load i32, i32* %5, align 4
  %20 = call i32 @f(i8* %18, i32 %19)
  store i32 %20, i32* %4, align 4
  %21 = load i32, i32* %4, align 4
  %22 = call i32 (i8*, ...) @printf(i8* getelementptr inbounds ([4 x i8], [4 x i8]* @.str, i64 0, i64 0), i32 %21)
  br label %23

23:                                               ; preds = %12
  %24 = load i32, i32* %3, align 4
  %25 = add nsw i32 %24, 1
  store i32 %25, i32* %3, align 4
  br label %8

26:                                               ; preds = %8
  %27 = load i32, i32* %1, align 4
  ret i32 %27
}

declare dso_local i32 @__isoc99_scanf(i8*, ...) #1

declare dso_local i32 @gets(...) #1

; Function Attrs: nounwind readonly
declare dso_local i64 @strlen(i8*) #2

; Function Attrs: noinline nounwind uwtable
define dso_local i32 @f(i8* %0, i32 %1) #0 {
  %3 = alloca i8*, align 8
  %4 = alloca i32, align 4
  %5 = alloca i32, align 4
  %6 = alloca i32, align 4
  store i8* %0, i8** %3, align 8
  store i32 %1, i32* %4, align 4
  store i32 1, i32* %5, align 4
  store i32 1, i32* %6, align 4
  br label %7

7:                                                ; preds = %70, %2
  %8 = load i32, i32* %6, align 4
  %9 = load i32, i32* %4, align 4
  %10 = sub nsw i32 %9, 1
  %11 = icmp sle i32 %8, %10
  br i1 %11, label %12, label %73

12:                                               ; preds = %7
  %13 = load i8*, i8** %3, align 8
  %14 = load i32, i32* %6, align 4
  %15 = sext i32 %14 to i64
  %16 = getelementptr inbounds i8, i8* %13, i64 %15
  %17 = load i8, i8* %16, align 1
  %18 = sext i8 %17 to i32
  %19 = icmp ne i32 %18, 95
  br i1 %19, label %20, label %69

20:                                               ; preds = %12
  %21 = load i8*, i8** %3, align 8
  %22 = load i32, i32* %6, align 4
  %23 = sext i32 %22 to i64
  %24 = getelementptr inbounds i8, i8* %21, i64 %23
  %25 = load i8, i8* %24, align 1
  %26 = sext i8 %25 to i32
  %27 = icmp sge i32 %26, 48
  br i1 %27, label %28, label %36

28:                                               ; preds = %20
  %29 = load i8*, i8** %3, align 8
  %30 = load i32, i32* %6, align 4
  %31 = sext i32 %30 to i64
  %32 = getelementptr inbounds i8, i8* %29, i64 %31
  %33 = load i8, i8* %32, align 1
  %34 = sext i8 %33 to i32
  %35 = icmp sle i32 %34, 57
  br i1 %35, label %69, label %36

36:                                               ; preds = %28, %20
  %37 = load i8*, i8** %3, align 8
  %38 = load i32, i32* %6, align 4
  %39 = sext i32 %38 to i64
  %40 = getelementptr inbounds i8, i8* %37, i64 %39
  %41 = load i8, i8* %40, align 1
  %42 = sext i8 %41 to i32
  %43 = icmp sge i32 %42, 65
  br i1 %43, label %44, label %52

44:                                               ; preds = %36
  %45 = load i8*, i8** %3, align 8
  %46 = load i32, i32* %6, align 4
  %47 = sext i32 %46 to i64
  %48 = getelementptr inbounds i8, i8* %45, i64 %47
  %49 = load i8, i8* %48, align 1
  %50 = sext i8 %49 to i32
  %51 = icmp sle i32 %50, 90
  br i1 %51, label %69, label %52

52:                                               ; preds = %44, %36
  %53 = load i8*, i8** %3, align 8
  %54 = load i32, i32* %6, align 4
  %55 = sext i32 %54 to i64
  %56 = getelementptr inbounds i8, i8* %53, i64 %55
  %57 = load i8, i8* %56, align 1
  %58 = sext i8 %57 to i32
  %59 = icmp sge i32 %58, 97
  br i1 %59, label %60, label %68

60:                                               ; preds = %52
  %61 = load i8*, i8** %3, align 8
  %62 = load i32, i32* %6, align 4
  %63 = sext i32 %62 to i64
  %64 = getelementptr inbounds i8, i8* %61, i64 %63
  %65 = load i8, i8* %64, align 1
  %66 = sext i8 %65 to i32
  %67 = icmp sle i32 %66, 122
  br i1 %67, label %69, label %68

68:                                               ; preds = %60, %52
  store i32 0, i32* %5, align 4
  br label %73

69:                                               ; preds = %60, %44, %28, %12
  br label %70

70:                                               ; preds = %69
  %71 = load i32, i32* %6, align 4
  %72 = add nsw i32 %71, 1
  store i32 %72, i32* %6, align 4
  br label %7

73:                                               ; preds = %68, %7
  %74 = load i32, i32* %5, align 4
  %75 = icmp eq i32 %74, 1
  br i1 %75, label %76, label %107

76:                                               ; preds = %73
  %77 = load i8*, i8** %3, align 8
  %78 = getelementptr inbounds i8, i8* %77, i64 0
  %79 = load i8, i8* %78, align 1
  %80 = sext i8 %79 to i32
  %81 = icmp eq i32 %80, 95
  br i1 %81, label %106, label %82

82:                                               ; preds = %76
  %83 = load i8*, i8** %3, align 8
  %84 = getelementptr inbounds i8, i8* %83, i64 0
  %85 = load i8, i8* %84, align 1
  %86 = sext i8 %85 to i32
  %87 = icmp sge i32 %86, 65
  br i1 %87, label %88, label %94

88:                                               ; preds = %82
  %89 = load i8*, i8** %3, align 8
  %90 = getelementptr inbounds i8, i8* %89, i64 0
  %91 = load i8, i8* %90, align 1
  %92 = sext i8 %91 to i32
  %93 = icmp sle i32 %92, 90
  br i1 %93, label %106, label %94

94:                                               ; preds = %88, %82
  %95 = load i8*, i8** %3, align 8
  %96 = getelementptr inbounds i8, i8* %95, i64 0
  %97 = load i8, i8* %96, align 1
  %98 = sext i8 %97 to i32
  %99 = icmp sge i32 %98, 97
  br i1 %99, label %100, label %107

100:                                              ; preds = %94
  %101 = load i8*, i8** %3, align 8
  %102 = getelementptr inbounds i8, i8* %101, i64 0
  %103 = load i8, i8* %102, align 1
  %104 = sext i8 %103 to i32
  %105 = icmp sle i32 %104, 122
  br i1 %105, label %106, label %107

106:                                              ; preds = %100, %88, %76
  store i32 1, i32* %5, align 4
  br label %108

107:                                              ; preds = %100, %94, %73
  store i32 0, i32* %5, align 4
  br label %108

108:                                              ; preds = %107, %106
  %109 = load i32, i32* %5, align 4
  ret i32 %109
}

declare dso_local i32 @printf(i8*, ...) #1


!llvm.module.flags = !{!0}
!llvm.ident = !{!1}

!0 = !{i32 1, !"wchar_size", i32 4}
!1 = !{!"clang version 10.0.0-4ubuntu1 "}
